; Function Attrs: mustprogress nofree norecurse nosync nounwind willreturn memory(argmem: readwrite) uwtable
define void @evhttp_connection_set_initial_retry_tv(ptr noundef writeonly captures(none) initializes((264, 280)) %0, ptr noundef readonly captures(address_is_null) %1) local_unnamed_addr #7 {
  %.not = icmp eq ptr %1, null
  %3 = getelementptr inbounds nuw i8, ptr %0, i64 264
  br i1 %.not, label %5, label %4

4:                                                ; preds = %2
  tail call void @llvm.memcpy.p0.p0.i64(ptr noundef nonnull align 8 dereferenceable(16) %3, ptr noundef nonnull align 8 dereferenceable(16) %1, i64 16, i1 false)
  br label %7

5:                                                ; preds = %2
  %6 = getelementptr inbounds nuw i8, ptr %0, i64 272
  store i64 0, ptr %6, align 8
  store i64 2, ptr %3, align 8
  br label %7

7:                                                ; preds = %5, %4
  ret void
}